target datalayout = "e-m:e-p270:32:32-p271:32:32-p272:64:64-i64:64-i128:128-f80:128-n8:16:32:64-S128"
target triple = "x86_64-pc-linux-gnu"

%struct.AVFilterContext = type { ptr, ptr, ptr, ptr, ptr, i32, ptr, ptr, i32, ptr, ptr, i32, i32, ptr, ptr, ptr, ptr, i32, ptr, i32, i32 }
%struct.FFFilterContext = type { %struct.AVFilterContext, ptr, i32, i32, ptr, ptr, ptr }
%struct.AVFilter = type { ptr, ptr, ptr, ptr, ptr, i32 }

@.str.43 = private unnamed_addr constant [59 x i8] c"Timeline ('enable' option) not supported with filter '%s'\0A\00", align 1
@var_names = internal constant [5 x ptr] [ptr @.str.45, ptr @.str.46, ptr @.str.47, ptr @.str.48, ptr null], align 16
@.str.44 = private unnamed_addr constant [54 x i8] c"Error when evaluating the expression '%s' for enable\0A\00", align 1

; Function Attrs: nounwind uwtable
define internal i32 @set_enable_expr(ptr noundef %0, ptr noundef %1) #0 {
  %3 = alloca i32, align 4
  %4 = alloca ptr, align 8
  %5 = alloca ptr, align 8
  %6 = alloca ptr, align 8
  %7 = alloca i32, align 4
  %8 = alloca ptr, align 8
  %9 = alloca ptr, align 8
  %10 = alloca i32, align 4
  store ptr %0, ptr %4, align 8, !tbaa !74
  store ptr %1, ptr %5, align 8, !tbaa !124
  call void @llvm.lifetime.start.p0(i64 8, ptr %6) #11
  %11 = load ptr, ptr %4, align 8, !tbaa !74
  %12 = getelementptr inbounds nuw %struct.FFFilterContext, ptr %11, i32 0, i32 0
  store ptr %12, ptr %6, align 8, !tbaa !4
  call void @llvm.lifetime.start.p0(i64 4, ptr %7) #11
  call void @llvm.lifetime.start.p0(i64 8, ptr %8) #11
  call void @llvm.lifetime.start.p0(i64 8, ptr %9) #11
  %13 = load ptr, ptr %4, align 8, !tbaa !74
  %14 = getelementptr inbounds nuw %struct.FFFilterContext, ptr %13, i32 0, i32 4
  %15 = load ptr, ptr %14, align 8, !tbaa !127
  store ptr %15, ptr %9, align 8, !tbaa !128
  %16 = load ptr, ptr %6, align 8, !tbaa !4
  %17 = getelementptr inbounds nuw %struct.AVFilterContext, ptr %16, i32 0, i32 1
  %18 = load ptr, ptr %17, align 8, !tbaa !110
  %19 = getelementptr inbounds nuw %struct.AVFilter, ptr %18, i32 0, i32 5
  %20 = load i32, ptr %19, align 8, !tbaa !129
  %21 = and i32 %20, 196608
  %22 = icmp ne i32 %21, 0
  br i1 %22, label %30, label %23

23:                                               ; preds = %2
  %24 = load ptr, ptr %6, align 8, !tbaa !4
  %25 = load ptr, ptr %6, align 8, !tbaa !4
  %26 = getelementptr inbounds nuw %struct.AVFilterContext, ptr %25, i32 0, i32 1
  %27 = load ptr, ptr %26, align 8, !tbaa !110
  %28 = getelementptr inbounds nuw %struct.AVFilter, ptr %27, i32 0, i32 0
  %29 = load ptr, ptr %28, align 8, !tbaa !125
  call void (ptr, i32, ptr, ...) @av_log(ptr noundef %24, i32 noundef 16, ptr noundef @.str.43, ptr noundef %29)
  store i32 -1163346256, ptr %3, align 4
  store i32 1, ptr %10, align 4
  br label %77

30:                                               ; preds = %2
  %31 = load ptr, ptr %5, align 8, !tbaa !124
  %32 = call noalias ptr @av_strdup(ptr noundef %31)
  store ptr %32, ptr %8, align 8, !tbaa !124
  %33 = load ptr, ptr %8, align 8, !tbaa !124
  %34 = icmp ne ptr %33, null
  br i1 %34, label %36, label %35

35:                                               ; preds = %30
  store i32 -12, ptr %3, align 4
  store i32 1, ptr %10, align 4
  br label %77

36:                                               ; preds = %30
  %37 = load ptr, ptr %4, align 8, !tbaa !74
  %38 = getelementptr inbounds nuw %struct.FFFilterContext, ptr %37, i32 0, i32 5
  %39 = load ptr, ptr %38, align 8, !tbaa !130
  %40 = icmp ne ptr %39, null
  br i1 %40, label %52, label %41

41:                                               ; preds = %36
  %42 = call noalias ptr @av_calloc(i64 noundef 4, i64 noundef 8)
  %43 = load ptr, ptr %4, align 8, !tbaa !74
  %44 = getelementptr inbounds nuw %struct.FFFilterContext, ptr %43, i32 0, i32 5
  store ptr %42, ptr %44, align 8, !tbaa !130
  %45 = load ptr, ptr %4, align 8, !tbaa !74
  %46 = getelementptr inbounds nuw %struct.FFFilterContext, ptr %45, i32 0, i32 5
  %47 = load ptr, ptr %46, align 8, !tbaa !130
  %48 = icmp ne ptr %47, null
  br i1 %48, label %51, label %49

49:                                               ; preds = %41
  %50 = load ptr, ptr %8, align 8, !tbaa !124
  call void @av_free(ptr noundef %50)
  store i32 -12, ptr %3, align 4
  store i32 1, ptr %10, align 4
  br label %77

51:                                               ; preds = %41
  br label %52

52:                                               ; preds = %51, %36
  %53 = load ptr, ptr %4, align 8, !tbaa !74
  %54 = getelementptr inbounds nuw %struct.FFFilterContext, ptr %53, i32 0, i32 4
  %55 = load ptr, ptr %8, align 8, !tbaa !124
  %56 = load ptr, ptr %6, align 8, !tbaa !4
  %57 = getelementptr inbounds nuw %struct.AVFilterContext, ptr %56, i32 0, i32 9
  %58 = load ptr, ptr %57, align 8, !tbaa !131
  %59 = call i32 @av_expr_parse(ptr noundef %54, ptr noundef %55, ptr noundef @var_names, ptr noundef null, ptr noundef null, ptr noundef null, ptr noundef null, i32 noundef 0, ptr noundef %58)
  store i32 %59, ptr %7, align 4, !tbaa !19
  %60 = load i32, ptr %7, align 4, !tbaa !19
  %61 = icmp slt i32 %60, 0
  br i1 %61, label %62, label %69

62:                                               ; preds = %52
  %63 = load ptr, ptr %6, align 8, !tbaa !4
  %64 = getelementptr inbounds nuw %struct.AVFilterContext, ptr %63, i32 0, i32 9
  %65 = load ptr, ptr %64, align 8, !tbaa !131
  %66 = load ptr, ptr %8, align 8, !tbaa !124
  call void (ptr, i32, ptr, ...) @av_log(ptr noundef %65, i32 noundef 16, ptr noundef @.str.44, ptr noundef %66)
  %67 = load ptr, ptr %8, align 8, !tbaa !124
  call void @av_free(ptr noundef %67)
  %68 = load i32, ptr %7, align 4, !tbaa !19
  store i32 %68, ptr %3, align 4
  store i32 1, ptr %10, align 4
  br label %77

69:                                               ; preds = %52
  %70 = load ptr, ptr %9, align 8, !tbaa !128
  call void @av_expr_free(ptr noundef %70)
  %71 = load ptr, ptr %6, align 8, !tbaa !4
  %72 = getelementptr inbounds nuw %struct.AVFilterContext, ptr %71, i32 0, i32 14
  %73 = load ptr, ptr %72, align 8, !tbaa !132
  call void @av_free(ptr noundef %73)
  %74 = load ptr, ptr %8, align 8, !tbaa !124
  %75 = load ptr, ptr %6, align 8, !tbaa !4
  %76 = getelementptr inbounds nuw %struct.AVFilterContext, ptr %75, i32 0, i32 14
  store ptr %74, ptr %76, align 8, !tbaa !132
  store i32 0, ptr %3, align 4
  store i32 1, ptr %10, align 4
  br label %77

77:                                               ; preds = %69, %62, %49, %35, %23
  call void @llvm.lifetime.end.p0(i64 8, ptr %9) #11
  call void @llvm.lifetime.end.p0(i64 8, ptr %8) #11
  call void @llvm.lifetime.end.p0(i64 4, ptr %7) #11
  call void @llvm.lifetime.end.p0(i64 8, ptr %6) #11
  %78 = load i32, ptr %3, align 4
  ret i32 %78
}