; Function Attrs: nounwind uwtable
define internal fastcc range(i32 -2147483648, 1) i32 @set_enable_expr(ptr noundef %0, ptr noundef %1) unnamed_addr #0 {
  %3 = getelementptr inbounds nuw i8, ptr %0, i64 168
  %4 = load ptr, ptr %3, align 8, !tbaa !104
  %5 = getelementptr inbounds nuw i8, ptr %0, i64 8
  %6 = load ptr, ptr %5, align 8, !tbaa !92
  %7 = getelementptr inbounds nuw i8, ptr %6, i64 40
  %8 = load i32, ptr %7, align 8, !tbaa !105
  %9 = and i32 %8, 196608
  %.not = icmp eq i32 %9, 0
  br i1 %.not, label %10, label %12

10:                                               ; preds = %2
  %11 = load ptr, ptr %6, align 8, !tbaa !102
  tail call void (ptr, i32, ptr, ...) @av_log(ptr noundef nonnull %0, i32 noundef 16, ptr noundef nonnull @.str.43, ptr noundef %11) #15
  br label %30

12:                                               ; preds = %2
  %13 = tail call noalias ptr @av_strdup(ptr noundef %1) #15
  %.not25 = icmp eq ptr %13, null
  br i1 %.not25, label %30, label %14

14:                                               ; preds = %12
  %15 = getelementptr inbounds nuw i8, ptr %0, i64 176
  %16 = load ptr, ptr %15, align 8, !tbaa !106
  %.not26 = icmp eq ptr %16, null
  br i1 %.not26, label %17, label %20

17:                                               ; preds = %14
  %18 = tail call noalias ptr @av_calloc(i64 noundef 4, i64 noundef 8) #15
  store ptr %18, ptr %15, align 8, !tbaa !106
  %.not27 = icmp eq ptr %18, null
  br i1 %.not27, label %19, label %20

19:                                               ; preds = %17
  tail call void @av_free(ptr noundef nonnull %13) #15
  br label %30

20:                                               ; preds = %17, %14
  %21 = getelementptr inbounds nuw i8, ptr %0, i64 72
  %22 = load ptr, ptr %21, align 8, !tbaa !107
  %23 = tail call i32 @av_expr_parse(ptr noundef nonnull %3, ptr noundef nonnull %13, ptr noundef nonnull @var_names, ptr noundef null, ptr noundef null, ptr noundef null, ptr noundef null, i32 noundef 0, ptr noundef %22) #15
  %24 = icmp slt i32 %23, 0
  br i1 %24, label %25, label %27

25:                                               ; preds = %20
  %26 = load ptr, ptr %21, align 8, !tbaa !107
  tail call void (ptr, i32, ptr, ...) @av_log(ptr noundef %26, i32 noundef 16, ptr noundef nonnull @.str.44, ptr noundef nonnull %13) #15
  tail call void @av_free(ptr noundef nonnull %13) #15
  br label %30

27:                                               ; preds = %20
  tail call void @av_expr_free(ptr noundef %4) #15
  %28 = getelementptr inbounds nuw i8, ptr %0, i64 104
  %29 = load ptr, ptr %28, align 8, !tbaa !108
  tail call void @av_free(ptr noundef %29) #15
  store ptr %13, ptr %28, align 8, !tbaa !108
  br label %30

30:                                               ; preds = %12, %27, %25, %19, %10
  %.0 = phi i32 [ %23, %25 ], [ 0, %27 ], [ -12, %19 ], [ -1163346256, %10 ], [ -12, %12 ]
  ret i32 %.0
}